(ioptparse
Values
p0
(dp1
S'selected_nodes'
p2
(lp3
sS'autoflatten'
p4
I01
sS'filetype'
p5
S'kicad_module'
p6
sS'ids'
p7
(lp8
S'text126'
p9
aS'text3860'
p10
asS'crop'
p11
I00
sS'debug'
p12
I00
sS'openkicad'
p13
I00
sS'openfactory'
p14
I00
sS'threshold'
p15
F20.0
sS'path'
p16
S'E:\\github\\kicad_library\\Minh_footprint\\Minh_footprint.pretty'
p17
sS'dpi'
p18
F1500.0
sb.